(lp0
(iclasse
Classe
p1
(dp2
S'media'
p3
I25000000
sS'pico'
p4
I25000000
sS'id'
p5
I0
sS'nome'
p6
S'be'
p7
sba(iclasse
Classe
p8
(dp9
g3
I60000000
sg4
I60000000
sg5
I1
sg6
S'video'
p10
sba(iclasse
Classe
p11
(dp12
g3
I10000000
sg4
I10000000
sg5
I2
sg6
S'voip'
p13
sba.